; Function Attrs: mustprogress nofree norecurse nosync nounwind willreturn memory(argmem: readwrite) uwtable
define hidden noundef ptr @_ZN6Assimp17Q3BSPFileImporter11getNextFaceEP6aiMeshRj(ptr noundef nonnull readnone align 8 captures(none) dereferenceable(160) %0, ptr noundef readonly captures(none) %1, ptr noundef nonnull align 4 captures(none) dereferenceable(4) %2) local_unnamed_addr #13 align 2 {
  %4 = load i32, ptr %2, align 4
  %5 = getelementptr inbounds nuw i8, ptr %1, i64 8
  %6 = load i32, ptr %5, align 8
  %7 = icmp ult i32 %4, %6
  br i1 %7, label %8, label %14

8:                                                ; preds = %3
  %9 = getelementptr inbounds nuw i8, ptr %1, i64 208
  %10 = load ptr, ptr %9, align 8
  %11 = zext i32 %4 to i64
  %12 = getelementptr inbounds nuw %struct.aiFace, ptr %10, i64 %11
  %13 = add nuw i32 %4, 1
  store i32 %13, ptr %2, align 4
  br label %14

14:                                               ; preds = %8, %3
  %.0 = phi ptr [ %12, %8 ], [ null, %3 ]
  ret ptr %.0
}